target datalayout = "e-m:e-p270:32:32-p271:32:32-p272:64:64-i64:64-i128:128-f80:128-n8:16:32:64-S128"
target triple = "x86_64-pc-linux-gnu"

@hf_rsl_ie_id = internal global i32 0, align 4
@hf_rsl_rbit = internal global i32 0, align 4
@hf_rsl_a3a2 = internal global i32 0, align 4
@hf_rsl_a1_0 = internal global i32 0, align 4
@hf_rsl_a1_1 = internal global i32 0, align 4
@hf_rsl_a1_2 = internal global i32 0, align 4
@ett_ie_act_type = internal global i32 0, align 4
@.str.797 = private unnamed_addr constant [20 x i8] c"Activation Type IE \00", align 1

; Function Attrs: null_pointer_is_valid sspstrong uwtable
define internal i32 @dissect_rsl_ie_act_type(ptr noundef %0, ptr noundef %1, ptr noundef %2, i32 noundef %3, i1 noundef zeroext %4) #0 {
  %6 = alloca i32, align 4
  %7 = alloca ptr, align 8
  %8 = alloca ptr, align 8
  %9 = alloca ptr, align 8
  %10 = alloca i32, align 4
  %11 = alloca i8, align 1
  %12 = alloca ptr, align 8
  %13 = alloca i8, align 1
  %14 = alloca i32, align 4
  %15 = alloca i32, align 4
  store ptr %0, ptr %7, align 8
  store ptr %1, ptr %8, align 8
  store ptr %2, ptr %9, align 8
  store i32 %3, ptr %10, align 4
  %16 = zext i1 %4 to i8
  store i8 %16, ptr %11, align 1
  call void @llvm.lifetime.start.p0(i64 8, ptr %12) #6
  call void @llvm.lifetime.start.p0(i64 1, ptr %13) #6
  call void @llvm.lifetime.start.p0(i64 4, ptr %14) #6
  %17 = load i8, ptr %11, align 1, !range !6, !noundef !7
  %18 = trunc i8 %17 to i1
  %19 = zext i1 %18 to i32
  %20 = icmp eq i32 %19, 0
  br i1 %20, label %21, label %31

21:                                               ; preds = %5
  %22 = load ptr, ptr %7, align 8
  %23 = load i32, ptr %10, align 4
  %24 = call zeroext i8 @tvb_get_uint8(ptr noundef %22, i32 noundef %23)
  store i8 %24, ptr %13, align 1
  %25 = load i8, ptr %13, align 1
  %26 = zext i8 %25 to i32
  %27 = icmp ne i32 %26, 3
  br i1 %27, label %28, label %30

28:                                               ; preds = %21
  %29 = load i32, ptr %10, align 4
  store i32 %29, ptr %6, align 4
  store i32 1, ptr %15, align 4
  br label %84

30:                                               ; preds = %21
  br label %31

31:                                               ; preds = %30, %5
  %32 = load ptr, ptr %9, align 8
  %33 = load ptr, ptr %7, align 8
  %34 = load i32, ptr %10, align 4
  %35 = load i32, ptr @ett_ie_act_type, align 4
  %36 = call ptr @proto_tree_add_subtree(ptr noundef %32, ptr noundef %33, i32 noundef %34, i32 noundef 2, i32 noundef %35, ptr noundef null, ptr noundef @.str.797)
  store ptr %36, ptr %12, align 8
  %37 = load ptr, ptr %12, align 8
  %38 = load i32, ptr @hf_rsl_ie_id, align 4
  %39 = load ptr, ptr %7, align 8
  %40 = load i32, ptr %10, align 4
  %41 = call ptr @proto_tree_add_item(ptr noundef %37, i32 noundef %38, ptr noundef %39, i32 noundef %40, i32 noundef 1, i32 noundef 0)
  %42 = load i32, ptr %10, align 4
  %43 = add i32 %42, 1
  store i32 %43, ptr %10, align 4
  %44 = load ptr, ptr %12, align 8
  %45 = load i32, ptr @hf_rsl_rbit, align 4
  %46 = load ptr, ptr %7, align 8
  %47 = load i32, ptr %10, align 4
  %48 = call ptr @proto_tree_add_item(ptr noundef %44, i32 noundef %45, ptr noundef %46, i32 noundef %47, i32 noundef 1, i32 noundef 0)
  %49 = load ptr, ptr %7, align 8
  %50 = load i32, ptr %10, align 4
  %51 = call zeroext i8 @tvb_get_uint8(ptr noundef %49, i32 noundef %50)
  %52 = zext i8 %51 to i32
  %53 = and i32 %52, 6
  %54 = ashr i32 %53, 1
  store i32 %54, ptr %14, align 4
  %55 = load ptr, ptr %12, align 8
  %56 = load i32, ptr @hf_rsl_a3a2, align 4
  %57 = load ptr, ptr %7, align 8
  %58 = load i32, ptr %10, align 4
  %59 = call ptr @proto_tree_add_item(ptr noundef %55, i32 noundef %56, ptr noundef %57, i32 noundef %58, i32 noundef 1, i32 noundef 0)
  %60 = load i32, ptr %14, align 4
  switch i32 %60, label %79 [
    i32 0, label %61
    i32 1, label %67
    i32 2, label %73
  ]

61:                                               ; preds = %31
  %62 = load ptr, ptr %12, align 8
  %63 = load i32, ptr @hf_rsl_a1_0, align 4
  %64 = load ptr, ptr %7, align 8
  %65 = load i32, ptr %10, align 4
  %66 = call ptr @proto_tree_add_item(ptr noundef %62, i32 noundef %63, ptr noundef %64, i32 noundef %65, i32 noundef 1, i32 noundef 0)
  br label %80

67:                                               ; preds = %31
  %68 = load ptr, ptr %12, align 8
  %69 = load i32, ptr @hf_rsl_a1_1, align 4
  %70 = load ptr, ptr %7, align 8
  %71 = load i32, ptr %10, align 4
  %72 = call ptr @proto_tree_add_item(ptr noundef %68, i32 noundef %69, ptr noundef %70, i32 noundef %71, i32 noundef 1, i32 noundef 0)
  br label %80

73:                                               ; preds = %31
  %74 = load ptr, ptr %12, align 8
  %75 = load i32, ptr @hf_rsl_a1_2, align 4
  %76 = load ptr, ptr %7, align 8
  %77 = load i32, ptr %10, align 4
  %78 = call ptr @proto_tree_add_item(ptr noundef %74, i32 noundef %75, ptr noundef %76, i32 noundef %77, i32 noundef 1, i32 noundef 0)
  br label %80

79:                                               ; preds = %31
  br label %80

80:                                               ; preds = %79, %73, %67, %61
  %81 = load i32, ptr %10, align 4
  %82 = add i32 %81, 1
  store i32 %82, ptr %10, align 4
  %83 = load i32, ptr %10, align 4
  store i32 %83, ptr %6, align 4
  store i32 1, ptr %15, align 4
  br label %84

84:                                               ; preds = %80, %28
  call void @llvm.lifetime.end.p0(i64 4, ptr %14) #6
  call void @llvm.lifetime.end.p0(i64 1, ptr %13) #6
  call void @llvm.lifetime.end.p0(i64 8, ptr %12) #6
  %85 = load i32, ptr %6, align 4
  ret i32 %85
}