; Function Attrs: null_pointer_is_valid sspstrong uwtable
define internal fastcc noundef i32 @dissect_rsl_ie_act_type(ptr noundef %0, ptr noundef %1, i32 noundef %2) unnamed_addr #0 {
  %4 = load i32, ptr @ett_ie_act_type, align 4
  %5 = tail call ptr @proto_tree_add_subtree(ptr noundef %1, ptr noundef %0, i32 noundef %2, i32 noundef 2, i32 noundef %4, ptr noundef null, ptr noundef nonnull @.str.797)
  %6 = load i32, ptr @hf_rsl_ie_id, align 4
  %7 = tail call ptr @proto_tree_add_item(ptr noundef %5, i32 noundef %6, ptr noundef %0, i32 noundef %2, i32 noundef 1, i32 noundef 0)
  %8 = add i32 %2, 1
  %9 = load i32, ptr @hf_rsl_rbit, align 4
  %10 = tail call ptr @proto_tree_add_item(ptr noundef %5, i32 noundef %9, ptr noundef %0, i32 noundef %8, i32 noundef 1, i32 noundef 0)
  %11 = tail call zeroext i8 @tvb_get_uint8(ptr noundef %0, i32 noundef %8)
  %12 = lshr i8 %11, 1
  %13 = and i8 %12, 3
  %14 = load i32, ptr @hf_rsl_a3a2, align 4
  %15 = tail call ptr @proto_tree_add_item(ptr noundef %5, i32 noundef %14, ptr noundef %0, i32 noundef %8, i32 noundef 1, i32 noundef 0)
  switch i8 %13, label %default.unreachable [
    i8 0, label %.sink.split
    i8 1, label %16
    i8 2, label %17
    i8 3, label %20
  ]

16:                                               ; preds = %3
  br label %.sink.split

17:                                               ; preds = %3
  br label %.sink.split

default.unreachable:                              ; preds = %3
  unreachable

.sink.split:                                      ; preds = %3, %17, %16
  %hf_rsl_a1_0.sink = phi ptr [ @hf_rsl_a1_1, %16 ], [ @hf_rsl_a1_2, %17 ], [ @hf_rsl_a1_0, %3 ]
  %18 = load i32, ptr %hf_rsl_a1_0.sink, align 4
  %19 = tail call ptr @proto_tree_add_item(ptr noundef %5, i32 noundef %18, ptr noundef %0, i32 noundef %8, i32 noundef 1, i32 noundef 0)
  br label %20

20:                                               ; preds = %.sink.split, %3
  %21 = add i32 %2, 2
  ret i32 %21
}